; Function Attrs: mustprogress nofree norecurse nosync nounwind willreturn memory(argmem: readwrite) uwtable
define i32 @cli_bytecode_context_getresult_file(ptr nocapture noundef %0, ptr nocapture noundef writeonly %1) local_unnamed_addr #4 {
  %3 = getelementptr inbounds i8, ptr %0, i64 1080
  %4 = load ptr, ptr %3, align 8
  store ptr %4, ptr %1, align 8
  %5 = getelementptr inbounds i8, ptr %0, i64 60
  %6 = load i32, ptr %5, align 4
  store ptr null, ptr %3, align 8
  store i32 -1, ptr %5, align 4
  ret i32 %6
}